target datalayout = "e-m:e-p270:32:32-p271:32:32-p272:64:64-i64:64-i128:128-f80:128-n8:16:32:64-S128"
target triple = "x86_64-pc-linux-gnu"

%struct.giop_sub_handle = type { ptr, ptr, ptr }
%struct.MessageHeader = type { [4 x i8], %struct.Version, i8, i8, i32, i32, i32, ptr }
%struct.Version = type { i8, i8 }
%struct._packet_info = type { ptr, ptr, i32, i32, %struct.nstime_t, %struct.nstime_t, %struct.nstime_t, i8, ptr, ptr, ptr, ptr, %struct._address, %struct._address, %struct._address, %struct._address, %struct._address, %struct._address, i32, ptr, i8, [3 x i8], %struct.anon, i32, i32, i32, i32, ptr, i8, ptr, ptr, i16, i16, i32, i32, i16, i32, i32, ptr, ptr, ptr, i8, i8, i16, i16, i16, i32, i16, i16, ptr, ptr, ptr, ptr, ptr, i32, i32 }
%struct.nstime_t = type { i64, i32 }
%struct._address = type { i32, i32, ptr, ptr }
%struct.anon = type { i8, [3 x i8] }

@giop_sub_list = internal global ptr null, align 8
@.str.210 = private unnamed_addr constant [5 x i8] c"GIOP\00", align 1

; Function Attrs: inlinehint nounwind null_pointer_is_valid sspstrong uwtable
define internal i32 @pletoh32(ptr noundef %0) #12 {
  %2 = alloca ptr, align 8
  store ptr %0, ptr %2, align 8
  %3 = load ptr, ptr %2, align 8
  %4 = getelementptr i8, ptr %3, i64 3
  %5 = load i8, ptr %4, align 1
  %6 = zext i8 %5 to i32
  %7 = shl i32 %6, 24
  %8 = load ptr, ptr %2, align 8
  %9 = getelementptr i8, ptr %8, i64 2
  %10 = load i8, ptr %9, align 1
  %11 = zext i8 %10 to i32
  %12 = shl i32 %11, 16
  %13 = or i32 %7, %12
  %14 = load ptr, ptr %2, align 8
  %15 = getelementptr i8, ptr %14, i64 1
  %16 = load i8, ptr %15, align 1
  %17 = zext i8 %16 to i32
  %18 = shl i32 %17, 8
  %19 = or i32 %13, %18
  %20 = load ptr, ptr %2, align 8
  %21 = getelementptr i8, ptr %20, i64 0
  %22 = load i8, ptr %21, align 1
  %23 = zext i8 %22 to i32
  %24 = shl i32 %23, 0
  %25 = or i32 %19, %24
  ret i32 %25
}

; Function Attrs: inlinehint nounwind null_pointer_is_valid sspstrong uwtable
define internal i32 @pntoh32(ptr noundef %0) #12 {
  %2 = alloca ptr, align 8
  store ptr %0, ptr %2, align 8
  %3 = load ptr, ptr %2, align 8
  %4 = getelementptr i8, ptr %3, i64 0
  %5 = load i8, ptr %4, align 1
  %6 = zext i8 %5 to i32
  %7 = shl i32 %6, 24
  %8 = load ptr, ptr %2, align 8
  %9 = getelementptr i8, ptr %8, i64 1
  %10 = load i8, ptr %9, align 1
  %11 = zext i8 %10 to i32
  %12 = shl i32 %11, 16
  %13 = or i32 %7, %12
  %14 = load ptr, ptr %2, align 8
  %15 = getelementptr i8, ptr %14, i64 2
  %16 = load i8, ptr %15, align 1
  %17 = zext i8 %16 to i32
  %18 = shl i32 %17, 8
  %19 = or i32 %13, %18
  %20 = load ptr, ptr %2, align 8
  %21 = getelementptr i8, ptr %20, i64 3
  %22 = load i8, ptr %21, align 1
  %23 = zext i8 %22 to i32
  %24 = shl i32 %23, 0
  %25 = or i32 %19, %24
  ret i32 %25
}

; Function Attrs: nounwind null_pointer_is_valid sspstrong uwtable
define zeroext i1 @is_big_endian(ptr noundef %0) #5 {
  %2 = alloca ptr, align 8
  %3 = alloca i8, align 1
  store ptr %0, ptr %2, align 8
  call void @llvm.lifetime.start.p0(i64 1, ptr %3) #14
  store i8 0, ptr %3, align 1
  %4 = load ptr, ptr %2, align 8
  %5 = getelementptr inbounds nuw %struct.MessageHeader, ptr %4, i32 0, i32 1
  %6 = getelementptr inbounds nuw %struct.Version, ptr %5, i32 0, i32 1
  %7 = load i8, ptr %6, align 1
  %8 = zext i8 %7 to i32
  switch i32 %8, label %27 [
    i32 2, label %9
    i32 1, label %9
    i32 0, label %19
  ]

9:                                                ; preds = %1, %1
  %10 = load ptr, ptr %2, align 8
  %11 = getelementptr inbounds nuw %struct.MessageHeader, ptr %10, i32 0, i32 2
  %12 = load i8, ptr %11, align 2
  %13 = zext i8 %12 to i32
  %14 = and i32 %13, 1
  %15 = icmp ne i32 %14, 0
  br i1 %15, label %16, label %17

16:                                               ; preds = %9
  store i8 0, ptr %3, align 1
  br label %18

17:                                               ; preds = %9
  store i8 1, ptr %3, align 1
  br label %18

18:                                               ; preds = %17, %16
  br label %28

19:                                               ; preds = %1
  %20 = load ptr, ptr %2, align 8
  %21 = getelementptr inbounds nuw %struct.MessageHeader, ptr %20, i32 0, i32 2
  %22 = load i8, ptr %21, align 2
  %23 = icmp ne i8 %22, 0
  br i1 %23, label %24, label %25

24:                                               ; preds = %19
  store i8 0, ptr %3, align 1
  br label %26

25:                                               ; preds = %19
  store i8 1, ptr %3, align 1
  br label %26

26:                                               ; preds = %25, %24
  br label %28

27:                                               ; preds = %1
  br label %28

28:                                               ; preds = %27, %26, %18
  %29 = load i8, ptr %3, align 1, !range !8, !noundef !9
  %30 = trunc i8 %29 to i1
  call void @llvm.lifetime.end.p0(i64 1, ptr %3) #14
  ret i1 %30
}

; Function Attrs: null_pointer_is_valid sspstrong uwtable
define internal zeroext i1 @try_heuristic_giop_dissector(ptr noundef %0, ptr noundef %1, ptr noundef %2, ptr noundef %3, ptr noundef %4, ptr noundef %5) #0 {
  %7 = alloca i1, align 1
  %8 = alloca ptr, align 8
  %9 = alloca ptr, align 8
  %10 = alloca ptr, align 8
  %11 = alloca ptr, align 8
  %12 = alloca ptr, align 8
  %13 = alloca ptr, align 8
  %14 = alloca i32, align 4
  %15 = alloca i32, align 4
  %16 = alloca i8, align 1
  %17 = alloca ptr, align 8
  %18 = alloca i32, align 4
  %19 = alloca i32, align 4
  %20 = alloca i8, align 1
  %21 = alloca %struct._packet_info, align 8
  %22 = alloca i32, align 4
  store ptr %0, ptr %8, align 8
  store ptr %1, ptr %9, align 8
  store ptr %2, ptr %10, align 8
  store ptr %3, ptr %11, align 8
  store ptr %4, ptr %12, align 8
  store ptr %5, ptr %13, align 8
  call void @llvm.lifetime.start.p0(i64 4, ptr %14) #14
  call void @llvm.lifetime.start.p0(i64 4, ptr %15) #14
  call void @llvm.lifetime.start.p0(i64 1, ptr %16) #14
  store i8 0, ptr %16, align 1
  call void @llvm.lifetime.start.p0(i64 8, ptr %17) #14
  %23 = load ptr, ptr @giop_sub_list, align 8
  %24 = call i32 @g_slist_length(ptr noundef %23)
  store i32 %24, ptr %15, align 4
  %25 = load i32, ptr %15, align 4
  %26 = icmp eq i32 %25, 0
  br i1 %26, label %27, label %28

27:                                               ; preds = %6
  store i1 false, ptr %7, align 1
  store i32 1, ptr %18, align 4
  br label %150

28:                                               ; preds = %6
  call void @llvm.lifetime.start.p0(i64 4, ptr %19) #14
  call void @llvm.lifetime.start.p0(i64 1, ptr %20) #14
  %29 = load ptr, ptr %12, align 8
  %30 = call zeroext i1 @is_big_endian(ptr noundef %29)
  %31 = zext i1 %30 to i8
  store i8 %31, ptr %20, align 1
  %32 = load i8, ptr %20, align 1, !range !8, !noundef !9
  %33 = trunc i8 %32 to i1
  br i1 %33, label %34, label %38

34:                                               ; preds = %28
  %35 = load ptr, ptr %12, align 8
  %36 = getelementptr inbounds nuw %struct.MessageHeader, ptr %35, i32 0, i32 4
  %37 = call i32 @pntoh32(ptr noundef %36)
  store i32 %37, ptr %19, align 4
  br label %42

38:                                               ; preds = %28
  %39 = load ptr, ptr %12, align 8
  %40 = getelementptr inbounds nuw %struct.MessageHeader, ptr %39, i32 0, i32 4
  %41 = call i32 @pletoh32(ptr noundef %40)
  store i32 %41, ptr %19, align 4
  br label %42

42:                                               ; preds = %38, %34
  %43 = load ptr, ptr %11, align 8
  %44 = load i32, ptr %43, align 4
  %45 = icmp slt i32 %44, 0
  br i1 %45, label %51, label %46

46:                                               ; preds = %42
  %47 = load ptr, ptr %11, align 8
  %48 = load i32, ptr %47, align 4
  %49 = load i32, ptr %19, align 4
  %50 = icmp ugt i32 %48, %49
  br i1 %50, label %51, label %52

51:                                               ; preds = %46, %42
  store i1 false, ptr %7, align 1
  store i32 1, ptr %18, align 4
  br label %53

52:                                               ; preds = %46
  store i32 0, ptr %18, align 4
  br label %53

53:                                               ; preds = %52, %51
  call void @llvm.lifetime.end.p0(i64 1, ptr %20) #14
  call void @llvm.lifetime.end.p0(i64 4, ptr %19) #14
  %54 = load i32, ptr %18, align 4
  switch i32 %54, label %150 [
    i32 0, label %55
  ]

55:                                               ; preds = %53
  br label %56

56:                                               ; preds = %55
  br label %57

57:                                               ; preds = %56
  br label %58

58:                                               ; preds = %57
  store i32 0, ptr %14, align 4
  br label %59

59:                                               ; preds = %141, %58
  %60 = load i32, ptr %14, align 4
  %61 = load i32, ptr %15, align 4
  %62 = icmp slt i32 %60, %61
  br i1 %62, label %63, label %144

63:                                               ; preds = %59
  %64 = load ptr, ptr @giop_sub_list, align 8
  %65 = load i32, ptr %14, align 4
  %66 = call ptr @g_slist_nth_data(ptr noundef %64, i32 noundef %65)
  store ptr %66, ptr %17, align 8
  %67 = load ptr, ptr %17, align 8
  %68 = getelementptr inbounds nuw %struct.giop_sub_handle, ptr %67, i32 0, i32 2
  %69 = load ptr, ptr %68, align 8
  %70 = call zeroext i1 @proto_is_protocol_enabled(ptr noundef %69)
  br i1 %70, label %71, label %140

71:                                               ; preds = %63
  call void @llvm.lifetime.start.p0(i64 440, ptr %21) #14
  %72 = load ptr, ptr %9, align 8
  call void @llvm.memcpy.p0.p0.i64(ptr align 8 %21, ptr align 8 %72, i64 440, i1 false)
  %73 = load ptr, ptr %17, align 8
  %74 = getelementptr inbounds nuw %struct.giop_sub_handle, ptr %73, i32 0, i32 2
  %75 = load ptr, ptr %74, align 8
  %76 = call ptr @proto_get_protocol_short_name(ptr noundef %75)
  %77 = load ptr, ptr %9, align 8
  %78 = getelementptr inbounds nuw %struct._packet_info, ptr %77, i32 0, i32 0
  store ptr %76, ptr %78, align 8
  call void @llvm.lifetime.start.p0(i64 4, ptr %22) #14
  %79 = load ptr, ptr %11, align 8
  %80 = load i32, ptr %79, align 4
  store i32 %80, ptr %22, align 4
  %81 = load ptr, ptr %17, align 8
  %82 = getelementptr inbounds nuw %struct.giop_sub_handle, ptr %81, i32 0, i32 0
  %83 = load ptr, ptr %82, align 8
  %84 = load ptr, ptr %8, align 8
  %85 = load ptr, ptr %9, align 8
  %86 = load ptr, ptr %11, align 8
  %87 = load ptr, ptr %12, align 8
  %88 = load ptr, ptr %13, align 8
  %89 = call zeroext i1 %83(ptr noundef %84, ptr noundef %85, ptr noundef null, ptr noundef %86, ptr noundef %87, ptr noundef %88, ptr noundef null)
  %90 = zext i1 %89 to i8
  store i8 %90, ptr %16, align 1
  %91 = load i8, ptr %16, align 1, !range !8, !noundef !9
  %92 = trunc i8 %91 to i1
  br i1 %92, label %93, label %100

93:                                               ; preds = %71
  br label %94

94:                                               ; preds = %93
  br label %95

95:                                               ; preds = %94
  br label %96

96:                                               ; preds = %95
  br label %97

97:                                               ; preds = %96
  br label %98

98:                                               ; preds = %97
  br label %99

99:                                               ; preds = %98
  br label %100

100:                                              ; preds = %99, %71
  %101 = load i8, ptr %16, align 1, !range !8, !noundef !9
  %102 = trunc i8 %101 to i1
  br i1 %102, label %103, label %132

103:                                              ; preds = %100
  %104 = load ptr, ptr %8, align 8
  %105 = load ptr, ptr %11, align 8
  %106 = load i32, ptr %105, align 4
  %107 = call i32 @tvb_reported_length_remaining(ptr noundef %104, i32 noundef %106)
  %108 = icmp eq i32 %107, 0
  br i1 %108, label %109, label %132

109:                                              ; preds = %103
  br label %110

110:                                              ; preds = %109
  br label %111

111:                                              ; preds = %110
  br label %112

112:                                              ; preds = %111
  %113 = load i32, ptr %22, align 4
  %114 = load ptr, ptr %11, align 8
  store i32 %113, ptr %114, align 4
  %115 = load ptr, ptr %9, align 8
  call void @llvm.memcpy.p0.p0.i64(ptr align 8 %115, ptr align 8 %21, i64 440, i1 false)
  %116 = load ptr, ptr %17, align 8
  %117 = getelementptr inbounds nuw %struct.giop_sub_handle, ptr %116, i32 0, i32 2
  %118 = load ptr, ptr %117, align 8
  %119 = call ptr @proto_get_protocol_short_name(ptr noundef %118)
  %120 = load ptr, ptr %9, align 8
  %121 = getelementptr inbounds nuw %struct._packet_info, ptr %120, i32 0, i32 0
  store ptr %119, ptr %121, align 8
  %122 = load ptr, ptr %17, align 8
  %123 = getelementptr inbounds nuw %struct.giop_sub_handle, ptr %122, i32 0, i32 0
  %124 = load ptr, ptr %123, align 8
  %125 = load ptr, ptr %8, align 8
  %126 = load ptr, ptr %9, align 8
  %127 = load ptr, ptr %10, align 8
  %128 = load ptr, ptr %11, align 8
  %129 = load ptr, ptr %12, align 8
  %130 = load ptr, ptr %13, align 8
  %131 = call zeroext i1 %124(ptr noundef %125, ptr noundef %126, ptr noundef %127, ptr noundef %128, ptr noundef %129, ptr noundef %130, ptr noundef null)
  store i1 true, ptr %7, align 1
  store i32 1, ptr %18, align 4
  br label %137

132:                                              ; preds = %103, %100
  %133 = load ptr, ptr %9, align 8
  call void @llvm.memcpy.p0.p0.i64(ptr align 8 %133, ptr align 8 %21, i64 440, i1 false)
  %134 = load i32, ptr %22, align 4
  %135 = load ptr, ptr %11, align 8
  store i32 %134, ptr %135, align 4
  store i8 0, ptr %16, align 1
  br label %136

136:                                              ; preds = %132
  store i32 0, ptr %18, align 4
  br label %137

137:                                              ; preds = %136, %112
  call void @llvm.lifetime.end.p0(i64 4, ptr %22) #14
  call void @llvm.lifetime.end.p0(i64 440, ptr %21) #14
  %138 = load i32, ptr %18, align 4
  switch i32 %138, label %150 [
    i32 0, label %139
  ]

139:                                              ; preds = %137
  br label %140

140:                                              ; preds = %139, %63
  br label %141

141:                                              ; preds = %140
  %142 = load i32, ptr %14, align 4
  %143 = add i32 %142, 1
  store i32 %143, ptr %14, align 4
  br label %59, !llvm.loop !35

144:                                              ; preds = %59
  %145 = load ptr, ptr %9, align 8
  %146 = getelementptr inbounds nuw %struct._packet_info, ptr %145, i32 0, i32 1
  %147 = load ptr, ptr %146, align 8
  call void @col_set_str(ptr noundef %147, i32 noundef 35, ptr noundef @.str.210)
  %148 = load i8, ptr %16, align 1, !range !8, !noundef !9
  %149 = trunc i8 %148 to i1
  store i1 %149, ptr %7, align 1
  store i32 1, ptr %18, align 4
  br label %150

150:                                              ; preds = %144, %137, %53, %27
  call void @llvm.lifetime.end.p0(i64 8, ptr %17) #14
  call void @llvm.lifetime.end.p0(i64 1, ptr %16) #14
  call void @llvm.lifetime.end.p0(i64 4, ptr %15) #14
  call void @llvm.lifetime.end.p0(i64 4, ptr %14) #14
  %151 = load i1, ptr %7, align 1
  ret i1 %151
}