; Function Attrs: null_pointer_is_valid sspstrong uwtable
define internal fastcc noundef zeroext i1 @try_heuristic_giop_dissector(ptr noundef %0, ptr noundef %1, ptr noundef %2, ptr noundef %3, ptr noundef %4, ptr noundef %5) unnamed_addr #0 {
  %7 = alloca %struct._packet_info, align 8
  %8 = load ptr, ptr @giop_sub_list, align 8
  %9 = tail call i32 @g_slist_length(ptr noundef %8)
  %10 = icmp eq i32 %9, 0
  br i1 %10, label %69, label %11

11:                                               ; preds = %6
  %12 = getelementptr inbounds nuw i8, ptr %4, i64 5
  %13 = load i8, ptr %12, align 1
  switch i8 %13, label %is_big_endian.exit.thread [
    i8 2, label %14
    i8 1, label %14
    i8 0, label %is_big_endian.exit
  ]

14:                                               ; preds = %11, %11
  %15 = getelementptr inbounds nuw i8, ptr %4, i64 6
  %16 = load i8, ptr %15, align 2
  %17 = and i8 %16, 1
  %.not3.i = icmp eq i8 %17, 0
  br i1 %.not3.i, label %20, label %is_big_endian.exit.thread

is_big_endian.exit:                               ; preds = %11
  %18 = getelementptr inbounds nuw i8, ptr %4, i64 6
  %19 = load i8, ptr %18, align 2
  %.not.i = icmp eq i8 %19, 0
  br i1 %.not.i, label %20, label %is_big_endian.exit.thread

20:                                               ; preds = %14, %is_big_endian.exit
  %21 = getelementptr inbounds nuw i8, ptr %4, i64 8
  %22 = load i8, ptr %21, align 1
  %23 = zext i8 %22 to i32
  %24 = shl nuw i32 %23, 24
  %25 = getelementptr i8, ptr %4, i64 9
  %26 = load i8, ptr %25, align 1
  %27 = zext i8 %26 to i32
  %28 = shl nuw nsw i32 %27, 16
  %29 = or disjoint i32 %28, %24
  %30 = getelementptr i8, ptr %4, i64 10
  %31 = load i8, ptr %30, align 1
  %32 = zext i8 %31 to i32
  %33 = shl nuw nsw i32 %32, 8
  %34 = or disjoint i32 %29, %33
  %35 = getelementptr i8, ptr %4, i64 11
  %36 = load i8, ptr %35, align 1
  %37 = zext i8 %36 to i32
  %38 = or disjoint i32 %34, %37
  br label %41

is_big_endian.exit.thread:                        ; preds = %11, %14, %is_big_endian.exit
  %39 = getelementptr inbounds nuw i8, ptr %4, i64 8
  %40 = load i32, ptr %39, align 1
  br label %41

41:                                               ; preds = %is_big_endian.exit.thread, %20
  %.048 = phi i32 [ %38, %20 ], [ %40, %is_big_endian.exit.thread ]
  %42 = load i32, ptr %3, align 4
  %43 = icmp slt i32 %42, 0
  %44 = icmp ugt i32 %42, %.048
  %or.cond = select i1 %43, i1 true, i1 %44
  br i1 %or.cond, label %69, label %.critedge.preheader

.critedge.preheader:                              ; preds = %41
  %45 = icmp sgt i32 %9, 0
  br i1 %45, label %.lr.ph, label %.critedge._crit_edge

.lr.ph:                                           ; preds = %.critedge.preheader, %.critedge
  %.04762 = phi i32 [ %66, %.critedge ], [ 0, %.critedge.preheader ]
  %46 = load ptr, ptr @giop_sub_list, align 8
  %47 = tail call ptr @g_slist_nth_data(ptr noundef %46, i32 noundef %.04762)
  %48 = getelementptr inbounds nuw i8, ptr %47, i64 16
  %49 = load ptr, ptr %48, align 8
  %50 = tail call zeroext i1 @proto_is_protocol_enabled(ptr noundef %49)
  br i1 %50, label %51, label %.critedge

51:                                               ; preds = %.lr.ph
  call void @llvm.lifetime.start.p0(i64 440, ptr nonnull %7)
  call void @llvm.memcpy.p0.p0.i64(ptr noundef nonnull align 8 dereferenceable(440) %7, ptr noundef align 8 dereferenceable(440) %1, i64 440, i1 false)
  %52 = load ptr, ptr %48, align 8
  %53 = tail call ptr @proto_get_protocol_short_name(ptr noundef %52)
  store ptr %53, ptr %1, align 8
  %54 = load i32, ptr %3, align 4
  %55 = load ptr, ptr %47, align 8
  %56 = tail call zeroext i1 %55(ptr noundef %0, ptr noundef %1, ptr noundef null, ptr noundef %3, ptr noundef %4, ptr noundef %5, ptr noundef null)
  br i1 %56, label %57, label %.thread

57:                                               ; preds = %51
  %58 = load i32, ptr %3, align 4
  %59 = tail call i32 @tvb_reported_length_remaining(ptr noundef %0, i32 noundef %58)
  %60 = icmp eq i32 %59, 0
  br i1 %60, label %61, label %.thread

.thread:                                          ; preds = %51, %57
  call void @llvm.memcpy.p0.p0.i64(ptr noundef align 8 dereferenceable(440) %1, ptr noundef nonnull align 8 dereferenceable(440) %7, i64 440, i1 false)
  store i32 %54, ptr %3, align 4
  call void @llvm.lifetime.end.p0(i64 440, ptr nonnull %7)
  br label %.critedge

61:                                               ; preds = %57
  store i32 %54, ptr %3, align 4
  call void @llvm.memcpy.p0.p0.i64(ptr noundef align 8 dereferenceable(440) %1, ptr noundef nonnull align 8 dereferenceable(440) %7, i64 440, i1 false)
  %62 = load ptr, ptr %48, align 8
  %63 = tail call ptr @proto_get_protocol_short_name(ptr noundef %62)
  store ptr %63, ptr %1, align 8
  %64 = load ptr, ptr %47, align 8
  %65 = tail call zeroext i1 %64(ptr noundef %0, ptr noundef %1, ptr noundef %2, ptr noundef %3, ptr noundef %4, ptr noundef %5, ptr noundef null)
  call void @llvm.lifetime.end.p0(i64 440, ptr nonnull %7)
  br label %69

.critedge:                                        ; preds = %.thread, %.lr.ph
  %66 = add nuw nsw i32 %.04762, 1
  %exitcond.not = icmp eq i32 %66, %9
  br i1 %exitcond.not, label %.critedge._crit_edge, label %.lr.ph, !llvm.loop !57

.critedge._crit_edge:                             ; preds = %.critedge, %.critedge.preheader
  %67 = getelementptr inbounds nuw i8, ptr %1, i64 8
  %68 = load ptr, ptr %67, align 8
  tail call void @col_set_str(ptr noundef %68, i32 noundef 35, ptr noundef nonnull @.str.210)
  br label %69

69:                                               ; preds = %61, %41, %6, %.critedge._crit_edge
  %.0 = phi i1 [ true, %61 ], [ false, %.critedge._crit_edge ], [ false, %6 ], [ false, %41 ]
  ret i1 %.0
}